#include <math.h>
#include <stdio.h>
#include <stdlib.h>
#include <string.h>

int main()
{
	int n,ti,k,i,j;
	scanf("%d %d",&n,&k);
	for(i=1;;i++)
	{
		ti=i;
		for(j=1;j<=n;j++)
		{
			ti=ti*n+k;
			if(j==n)goto qqq;
			else if(ti%(n-1)==0){ti=ti/(n-1);}
			else{goto sss;}
		}
	sss:;
	}
qqq:printf("%d\n",ti);
	return 0;
}