; ModuleID = '54/1142.c'
source_filename = "54/1142.c"
target datalayout = "e-m:e-p270:32:32-p271:32:32-p272:64:64-i64:64-f80:128-n8:16:32:64-S128"
target triple = "x86_64-pc-linux-gnu"

@.str = private unnamed_addr constant [6 x i8] c"%d %d\00", align 1
@.str.1 = private unnamed_addr constant [4 x i8] c"%d\0A\00", align 1

; Function Attrs: noinline nounwind uwtable
define dso_local i32 @main() #0 {
  %1 = alloca i32, align 4
  %2 = alloca i32, align 4
  %3 = alloca i32, align 4
  %4 = alloca i32, align 4
  %5 = alloca i32, align 4
  %6 = alloca i32, align 4
  store i32 0, i32* %1, align 4
  %7 = call i32 (i8*, ...) @__isoc99_scanf(i8* getelementptr inbounds ([6 x i8], [6 x i8]* @.str, i64 0, i64 0), i32* %2, i32* %4)
  store i32 1, i32* %5, align 4
  br label %8

8:                                                ; preds = %43, %0
  %9 = load i32, i32* %5, align 4
  store i32 %9, i32* %3, align 4
  store i32 1, i32* %6, align 4
  br label %10

10:                                               ; preds = %38, %8
  %11 = load i32, i32* %6, align 4
  %12 = load i32, i32* %2, align 4
  %13 = icmp sle i32 %11, %12
  br i1 %13, label %14, label %41

14:                                               ; preds = %10
  %15 = load i32, i32* %3, align 4
  %16 = load i32, i32* %2, align 4
  %17 = mul nsw i32 %15, %16
  %18 = load i32, i32* %4, align 4
  %19 = add nsw i32 %17, %18
  store i32 %19, i32* %3, align 4
  %20 = load i32, i32* %6, align 4
  %21 = load i32, i32* %2, align 4
  %22 = icmp eq i32 %20, %21
  br i1 %22, label %23, label %24

23:                                               ; preds = %14
  br label %46

24:                                               ; preds = %14
  %25 = load i32, i32* %3, align 4
  %26 = load i32, i32* %2, align 4
  %27 = sub nsw i32 %26, 1
  %28 = srem i32 %25, %27
  %29 = icmp eq i32 %28, 0
  br i1 %29, label %30, label %35

30:                                               ; preds = %24
  %31 = load i32, i32* %3, align 4
  %32 = load i32, i32* %2, align 4
  %33 = sub nsw i32 %32, 1
  %34 = sdiv i32 %31, %33
  store i32 %34, i32* %3, align 4
  br label %36

35:                                               ; preds = %24
  br label %42

36:                                               ; preds = %30
  br label %37

37:                                               ; preds = %36
  br label %38

38:                                               ; preds = %37
  %39 = load i32, i32* %6, align 4
  %40 = add nsw i32 %39, 1
  store i32 %40, i32* %6, align 4
  br label %10

41:                                               ; preds = %10
  br label %42

42:                                               ; preds = %41, %35
  br label %43

43:                                               ; preds = %42
  %44 = load i32, i32* %5, align 4
  %45 = add nsw i32 %44, 1
  store i32 %45, i32* %5, align 4
  br label %8

46:                                               ; preds = %23
  %47 = load i32, i32* %3, align 4
  %48 = call i32 (i8*, ...) @printf(i8* getelementptr inbounds ([4 x i8], [4 x i8]* @.str.1, i64 0, i64 0), i32 %47)
  ret i32 0
}

declare dso_local i32 @__isoc99_scanf(i8*, ...) #1

declare dso_local i32 @printf(i8*, ...) #1


!llvm.module.flags = !{!0}
!llvm.ident = !{!1}

!0 = !{i32 1, !"wchar_size", i32 4}
!1 = !{!"clang version 10.0.0-4ubuntu1 "}
