; ModuleID = 'source-C-CXX/53/1142.c'
source_filename = "source-C-CXX/53/1142.c"
target datalayout = "e-m:e-p270:32:32-p271:32:32-p272:64:64-i64:64-f80:128-n8:16:32:64-S128"
target triple = "x86_64-pc-linux-gnu"

@.str = private unnamed_addr constant [6 x i8] c"%d %d\00", align 1
@.str.1 = private unnamed_addr constant [4 x i8] c"%d\0A\00", align 1

; Function Attrs: nofree nounwind sspstrong uwtable
define dso_local i32 @main() local_unnamed_addr #0 {
  %1 = alloca i32, align 4
  %2 = alloca i32, align 4
  %3 = bitcast i32* %1 to i8*
  call void @llvm.lifetime.start.p0i8(i64 4, i8* nonnull %3) #3
  %4 = bitcast i32* %2 to i8*
  call void @llvm.lifetime.start.p0i8(i64 4, i8* nonnull %4) #3
  %5 = call i32 (i8*, ...) @__isoc99_scanf(i8* getelementptr inbounds ([6 x i8], [6 x i8]* @.str, i64 0, i64 0), i32* nonnull %1, i32* nonnull %2)
  %6 = load i32, i32* %1, align 4, !tbaa !5
  %7 = load i32, i32* %2, align 4
  %8 = add nsw i32 %6, -1
  %9 = icmp slt i32 %6, 1
  br i1 %9, label %13, label %10

10:                                               ; preds = %0
  %11 = add nsw i32 %7, %6
  %12 = icmp eq i32 %6, 1
  br i1 %12, label %32, label %14

13:                                               ; preds = %0, %13
  br label %13

14:                                               ; preds = %10, %28
  %15 = phi i32 [ %31, %28 ], [ %11, %10 ]
  %16 = phi i32 [ %29, %28 ], [ 1, %10 ]
  br label %17

17:                                               ; preds = %14, %23
  %18 = phi i32 [ %15, %14 ], [ %26, %23 ]
  %19 = phi i32 [ 1, %14 ], [ %24, %23 ]
  %20 = srem i32 %18, %8
  %21 = sdiv i32 %18, %8
  %22 = icmp eq i32 %20, 0
  br i1 %22, label %23, label %28

23:                                               ; preds = %17
  %24 = add nuw nsw i32 %19, 1
  %25 = mul nsw i32 %6, %21
  %26 = add nsw i32 %7, %25
  %27 = icmp eq i32 %24, %6
  br i1 %27, label %32, label %17, !llvm.loop !9

28:                                               ; preds = %17
  %29 = add nuw nsw i32 %16, 1
  %30 = mul nsw i32 %6, %29
  %31 = add nsw i32 %7, %30
  br i1 %12, label %32, label %14

32:                                               ; preds = %28, %23, %10
  %33 = phi i32 [ %11, %10 ], [ %26, %23 ], [ %31, %28 ]
  %34 = call i32 (i8*, ...) @printf(i8* nonnull dereferenceable(1) getelementptr inbounds ([4 x i8], [4 x i8]* @.str.1, i64 0, i64 0), i32 %33)
  call void @llvm.lifetime.end.p0i8(i64 4, i8* nonnull %4) #3
  call void @llvm.lifetime.end.p0i8(i64 4, i8* nonnull %3) #3
  ret i32 0
}

; Function Attrs: argmemonly mustprogress nofree nosync nounwind willreturn
declare void @llvm.lifetime.start.p0i8(i64 immarg, i8* nocapture) #1

; Function Attrs: nofree nounwind
declare noundef i32 @__isoc99_scanf(i8* nocapture noundef readonly, ...) local_unnamed_addr #2

; Function Attrs: nofree nounwind
declare noundef i32 @printf(i8* nocapture noundef readonly, ...) local_unnamed_addr #2

; Function Attrs: argmemonly mustprogress nofree nosync nounwind willreturn
declare void @llvm.lifetime.end.p0i8(i64 immarg, i8* nocapture) #1


!llvm.module.flags = !{!0, !1, !2, !3}
!llvm.ident = !{!4}

!0 = !{i32 1, !"wchar_size", i32 4}
!1 = !{i32 7, !"PIC Level", i32 2}
!2 = !{i32 7, !"PIE Level", i32 2}
!3 = !{i32 7, !"uwtable", i32 1}
!4 = !{!"clang version 13.0.0"}
!5 = !{!6, !6, i64 0}
!6 = !{!"int", !7, i64 0}
!7 = !{!"omnipotent char", !8, i64 0}
!8 = !{!"Simple C/C++ TBAA"}
!9 = distinct !{!9, !10}
!10 = !{!"llvm.loop.mustprogress"}
